; Function Attrs: nounwind uwtable
define internal void @spatial_compose_dd137i_dy_8bit(ptr noundef captures(none) %0, i32 noundef %1, i32 noundef %2, i32 noundef %3, i32 noundef %4) #0 {
  %6 = getelementptr inbounds nuw i8, ptr %0, i64 56
  %7 = load ptr, ptr %6, align 8, !tbaa !29
  %8 = getelementptr inbounds nuw i8, ptr %0, i64 96
  %9 = sext i32 %1 to i64
  %10 = getelementptr inbounds %struct.DWTCompose, ptr %8, i64 %9
  %11 = getelementptr inbounds nuw i8, ptr %10, i64 64
  %12 = load i32, ptr %11, align 8, !tbaa !23
  %.sroa.0.0.copyload = load ptr, ptr %10, align 8, !tbaa !22
  %.sroa.5.0..sroa_idx = getelementptr inbounds nuw i8, ptr %10, i64 8
  %.sroa.5.0.copyload = load ptr, ptr %.sroa.5.0..sroa_idx, align 8, !tbaa !22
  %.sroa.6.0..sroa_idx = getelementptr inbounds nuw i8, ptr %10, i64 16
  %.sroa.6.0.copyload = load ptr, ptr %.sroa.6.0..sroa_idx, align 8, !tbaa !22
  %.sroa.8.0..sroa_idx = getelementptr inbounds nuw i8, ptr %10, i64 24
  %.sroa.8.0.copyload = load ptr, ptr %.sroa.8.0..sroa_idx, align 8, !tbaa !22
  %.sroa.10.0..sroa_idx = getelementptr inbounds nuw i8, ptr %10, i64 32
  %.sroa.10.0.copyload = load ptr, ptr %.sroa.10.0..sroa_idx, align 8, !tbaa !22
  %.sroa.11.0..sroa_idx = getelementptr inbounds nuw i8, ptr %10, i64 40
  %.sroa.11.0.copyload = load ptr, ptr %.sroa.11.0..sroa_idx, align 8, !tbaa !22
  %.sroa.12.0..sroa_idx = getelementptr inbounds nuw i8, ptr %10, i64 48
  %.sroa.12.0.copyload = load ptr, ptr %.sroa.12.0..sroa_idx, align 8, !tbaa !22
  %.sroa.14.0..sroa_idx = getelementptr inbounds nuw i8, ptr %10, i64 56
  %.sroa.14.0.copyload = load ptr, ptr %.sroa.14.0..sroa_idx, align 8, !tbaa !22
  %13 = load ptr, ptr %0, align 8, !tbaa !11
  %14 = icmp slt i32 %12, -7
  %15 = add nsw i32 %12, 8
  %16 = add nsw i32 %3, -1
  %..i41 = tail call i32 @llvm.smin.i32(i32 %15, i32 %16)
  %.0.i42 = select i1 %14, i32 1, i32 %..i41
  %17 = mul nsw i32 %.0.i42, %4
  %18 = sext i32 %17 to i64
  %19 = getelementptr inbounds i8, ptr %13, i64 %18
  %20 = add nsw i32 %12, 5
  %21 = icmp ult i32 %20, %3
  br i1 %21, label %22, label %25

22:                                               ; preds = %5
  %23 = getelementptr inbounds nuw i8, ptr %0, i64 48
  %24 = load ptr, ptr %23, align 8, !tbaa !29
  tail call void %24(ptr noundef %.sroa.8.0.copyload, ptr noundef %.sroa.11.0.copyload, ptr noundef %.sroa.12.0.copyload, ptr noundef %.sroa.14.0.copyload, ptr noundef %19, i32 noundef %2) #6
  br label %25

25:                                               ; preds = %22, %5
  %26 = add nsw i32 %12, 1
  %27 = icmp ult i32 %26, %3
  br i1 %27, label %28, label %29

28:                                               ; preds = %25
  tail call void %7(ptr noundef %.sroa.0.0.copyload, ptr noundef %.sroa.6.0.copyload, ptr noundef %.sroa.8.0.copyload, ptr noundef %.sroa.10.0.copyload, ptr noundef %.sroa.12.0.copyload, i32 noundef %2) #6
  br label %29

29:                                               ; preds = %28, %25
  %30 = add nsw i32 %12, -1
  %31 = icmp ult i32 %30, %3
  br i1 %31, label %32, label %37

32:                                               ; preds = %29
  %33 = getelementptr inbounds nuw i8, ptr %0, i64 88
  %34 = load ptr, ptr %33, align 8, !tbaa !33
  %35 = getelementptr inbounds nuw i8, ptr %0, i64 8
  %36 = load ptr, ptr %35, align 8, !tbaa !20
  tail call void %34(ptr noundef %.sroa.0.0.copyload, ptr noundef %36, i32 noundef %2) #6
  br label %37

37:                                               ; preds = %32, %29
  %38 = icmp ult i32 %12, %3
  br i1 %38, label %39, label %44

39:                                               ; preds = %37
  %40 = getelementptr inbounds nuw i8, ptr %0, i64 88
  %41 = load ptr, ptr %40, align 8, !tbaa !33
  %42 = getelementptr inbounds nuw i8, ptr %0, i64 8
  %43 = load ptr, ptr %42, align 8, !tbaa !20
  tail call void %41(ptr noundef %.sroa.5.0.copyload, ptr noundef %43, i32 noundef %2) #6
  br label %44

44:                                               ; preds = %39, %37
  %45 = add nsw i32 %12, 7
  %46 = add nsw i32 %3, -2
  %..i = tail call i32 @llvm.smin.i32(i32 %45, i32 %46)
  %.0.i = select i1 %14, i32 0, i32 %..i
  %47 = mul nsw i32 %.0.i, %4
  %48 = sext i32 %47 to i64
  %49 = getelementptr inbounds i8, ptr %13, i64 %48
  store ptr %.sroa.6.0.copyload, ptr %10, align 8, !tbaa !22
  store ptr %.sroa.8.0.copyload, ptr %.sroa.5.0..sroa_idx, align 8, !tbaa !22
  store ptr %.sroa.10.0.copyload, ptr %.sroa.6.0..sroa_idx, align 8, !tbaa !22
  store ptr %.sroa.11.0.copyload, ptr %.sroa.8.0..sroa_idx, align 8, !tbaa !22
  store ptr %.sroa.12.0.copyload, ptr %.sroa.10.0..sroa_idx, align 8, !tbaa !22
  store ptr %.sroa.14.0.copyload, ptr %.sroa.11.0..sroa_idx, align 8, !tbaa !22
  store ptr %49, ptr %.sroa.12.0..sroa_idx, align 8, !tbaa !22
  store ptr %19, ptr %.sroa.14.0..sroa_idx, align 8, !tbaa !22
  %50 = load i32, ptr %11, align 8, !tbaa !23
  %51 = add nsw i32 %50, 2
  store i32 %51, ptr %11, align 8, !tbaa !23
  ret void
}